target datalayout = "e-m:e-p270:32:32-p271:32:32-p272:64:64-i64:64-i128:128-f80:128-n8:16:32:64-S128"
target triple = "x86_64-pc-linux-gnu"

%struct.err_state_st = type { [16 x %struct.err_error_st], i32, i32, ptr }
%struct.err_error_st = type { ptr, ptr, i32, i16, i8 }

@.str.10 = private unnamed_addr constant [1 x i8] zeroinitializer, align 1
@.str.11 = private unnamed_addr constant [3 x i8] c"NA\00", align 1

; Function Attrs: nounwind uwtable
define internal void @err_clear_data(ptr noundef %0) #0 {
  %2 = alloca ptr, align 8
  store ptr %0, ptr %2, align 8, !tbaa !20
  %3 = load ptr, ptr %2, align 8, !tbaa !20
  %4 = getelementptr inbounds nuw %struct.err_error_st, ptr %3, i32 0, i32 4
  %5 = load i8, ptr %4, align 2, !tbaa !30
  %6 = zext i8 %5 to i32
  %7 = and i32 %6, 16
  %8 = icmp ne i32 %7, 0
  br i1 %8, label %9, label %13

9:                                                ; preds = %1
  %10 = load ptr, ptr %2, align 8, !tbaa !20
  %11 = getelementptr inbounds nuw %struct.err_error_st, ptr %10, i32 0, i32 1
  %12 = load ptr, ptr %11, align 8, !tbaa !29
  call void @free(ptr noundef %12) #12
  br label %13

13:                                               ; preds = %9, %1
  %14 = load ptr, ptr %2, align 8, !tbaa !20
  %15 = getelementptr inbounds nuw %struct.err_error_st, ptr %14, i32 0, i32 1
  store ptr null, ptr %15, align 8, !tbaa !29
  %16 = load ptr, ptr %2, align 8, !tbaa !20
  %17 = getelementptr inbounds nuw %struct.err_error_st, ptr %16, i32 0, i32 4
  %18 = load i8, ptr %17, align 2, !tbaa !30
  %19 = zext i8 %18 to i32
  %20 = and i32 %19, -17
  %21 = trunc i32 %20 to i8
  store i8 %21, ptr %17, align 2, !tbaa !30
  ret void
}

; Function Attrs: nounwind uwtable
define internal void @err_clear(ptr noundef %0) #0 {
  %2 = alloca ptr, align 8
  store ptr %0, ptr %2, align 8, !tbaa !20
  %3 = load ptr, ptr %2, align 8, !tbaa !20
  call void @err_clear_data(ptr noundef %3)
  %4 = load ptr, ptr %2, align 8, !tbaa !20
  call void @llvm.memset.p0.i64(ptr align 8 %4, i8 0, i64 24, i1 false)
  ret void
}

; Function Attrs: nounwind uwtable
define internal ptr @err_get_state() #0 {
  %1 = alloca ptr, align 8
  %2 = alloca ptr, align 8
  %3 = alloca i32, align 4
  call void @llvm.lifetime.start.p0(i64 8, ptr %2) #12
  %4 = call ptr @CRYPTO_get_thread_local(i32 noundef 0)
  store ptr %4, ptr %2, align 8, !tbaa !15
  %5 = load ptr, ptr %2, align 8, !tbaa !15
  %6 = icmp eq ptr %5, null
  br i1 %6, label %7, label %19

7:                                                ; preds = %0
  %8 = call noalias ptr @malloc(i64 noundef 400) #13
  store ptr %8, ptr %2, align 8, !tbaa !15
  %9 = load ptr, ptr %2, align 8, !tbaa !15
  %10 = icmp eq ptr %9, null
  br i1 %10, label %11, label %12

11:                                               ; preds = %7
  store ptr null, ptr %1, align 8
  store i32 1, ptr %3, align 4
  br label %21

12:                                               ; preds = %7
  %13 = load ptr, ptr %2, align 8, !tbaa !15
  call void @llvm.memset.p0.i64(ptr align 8 %13, i8 0, i64 400, i1 false)
  %14 = load ptr, ptr %2, align 8, !tbaa !15
  %15 = call i32 @CRYPTO_set_thread_local(i32 noundef 0, ptr noundef %14, ptr noundef @err_state_free)
  %16 = icmp ne i32 %15, 0
  br i1 %16, label %18, label %17

17:                                               ; preds = %12
  store ptr null, ptr %1, align 8
  store i32 1, ptr %3, align 4
  br label %21

18:                                               ; preds = %12
  br label %19

19:                                               ; preds = %18, %0
  %20 = load ptr, ptr %2, align 8, !tbaa !15
  store ptr %20, ptr %1, align 8
  store i32 1, ptr %3, align 4
  br label %21

21:                                               ; preds = %19, %17, %11
  call void @llvm.lifetime.end.p0(i64 8, ptr %2) #12
  %22 = load ptr, ptr %1, align 8
  ret ptr %22
}

; Function Attrs: nounwind uwtable
define internal i32 @get_error_values(i32 noundef %0, i32 noundef %1, ptr noundef %2, ptr noundef %3, ptr noundef %4, ptr noundef %5) #0 {
  %7 = alloca i32, align 4
  %8 = alloca i32, align 4
  %9 = alloca i32, align 4
  %10 = alloca ptr, align 8
  %11 = alloca ptr, align 8
  %12 = alloca ptr, align 8
  %13 = alloca ptr, align 8
  %14 = alloca i32, align 4
  %15 = alloca ptr, align 8
  %16 = alloca ptr, align 8
  %17 = alloca i32, align 4
  %18 = alloca i32, align 4
  store i32 %0, ptr %8, align 4, !tbaa !6
  store i32 %1, ptr %9, align 4, !tbaa !6
  store ptr %2, ptr %10, align 8, !tbaa !10
  store ptr %3, ptr %11, align 8, !tbaa !13
  store ptr %4, ptr %12, align 8, !tbaa !10
  store ptr %5, ptr %13, align 8, !tbaa !13
  call void @llvm.lifetime.start.p0(i64 4, ptr %14) #12
  store i32 0, ptr %14, align 4, !tbaa !6
  call void @llvm.lifetime.start.p0(i64 8, ptr %15) #12
  call void @llvm.lifetime.start.p0(i64 8, ptr %16) #12
  call void @llvm.lifetime.start.p0(i64 4, ptr %17) #12
  %19 = call ptr @err_get_state()
  store ptr %19, ptr %15, align 8, !tbaa !15
  %20 = load ptr, ptr %15, align 8, !tbaa !15
  %21 = icmp eq ptr %20, null
  br i1 %21, label %30, label %22

22:                                               ; preds = %6
  %23 = load ptr, ptr %15, align 8, !tbaa !15
  %24 = getelementptr inbounds nuw %struct.err_state_st, ptr %23, i32 0, i32 2
  %25 = load i32, ptr %24, align 4, !tbaa !17
  %26 = load ptr, ptr %15, align 8, !tbaa !15
  %27 = getelementptr inbounds nuw %struct.err_state_st, ptr %26, i32 0, i32 1
  %28 = load i32, ptr %27, align 8, !tbaa !19
  %29 = icmp eq i32 %25, %28
  br i1 %29, label %30, label %31

30:                                               ; preds = %22, %6
  store i32 0, ptr %7, align 4
  store i32 1, ptr %18, align 4
  br label %142

31:                                               ; preds = %22
  %32 = load i32, ptr %9, align 4, !tbaa !6
  %33 = icmp ne i32 %32, 0
  br i1 %33, label %34, label %38

34:                                               ; preds = %31
  %35 = load ptr, ptr %15, align 8, !tbaa !15
  %36 = getelementptr inbounds nuw %struct.err_state_st, ptr %35, i32 0, i32 1
  %37 = load i32, ptr %36, align 8, !tbaa !19
  store i32 %37, ptr %14, align 4, !tbaa !6
  br label %44

38:                                               ; preds = %31
  %39 = load ptr, ptr %15, align 8, !tbaa !15
  %40 = getelementptr inbounds nuw %struct.err_state_st, ptr %39, i32 0, i32 2
  %41 = load i32, ptr %40, align 4, !tbaa !17
  %42 = add i32 %41, 1
  %43 = urem i32 %42, 16
  store i32 %43, ptr %14, align 4, !tbaa !6
  br label %44

44:                                               ; preds = %38, %34
  %45 = load ptr, ptr %15, align 8, !tbaa !15
  %46 = getelementptr inbounds nuw %struct.err_state_st, ptr %45, i32 0, i32 0
  %47 = load i32, ptr %14, align 4, !tbaa !6
  %48 = zext i32 %47 to i64
  %49 = getelementptr inbounds nuw [16 x %struct.err_error_st], ptr %46, i64 0, i64 %48
  store ptr %49, ptr %16, align 8, !tbaa !20
  %50 = load ptr, ptr %16, align 8, !tbaa !20
  %51 = getelementptr inbounds nuw %struct.err_error_st, ptr %50, i32 0, i32 2
  %52 = load i32, ptr %51, align 8, !tbaa !22
  store i32 %52, ptr %17, align 4, !tbaa !6
  %53 = load ptr, ptr %10, align 8, !tbaa !10
  %54 = icmp ne ptr %53, null
  br i1 %54, label %55, label %77

55:                                               ; preds = %44
  %56 = load ptr, ptr %11, align 8, !tbaa !13
  %57 = icmp ne ptr %56, null
  br i1 %57, label %58, label %77

58:                                               ; preds = %55
  %59 = load ptr, ptr %16, align 8, !tbaa !20
  %60 = getelementptr inbounds nuw %struct.err_error_st, ptr %59, i32 0, i32 0
  %61 = load ptr, ptr %60, align 8, !tbaa !26
  %62 = icmp eq ptr %61, null
  br i1 %62, label %63, label %66

63:                                               ; preds = %58
  %64 = load ptr, ptr %10, align 8, !tbaa !10
  store ptr @.str.11, ptr %64, align 8, !tbaa !27
  %65 = load ptr, ptr %11, align 8, !tbaa !13
  store i32 0, ptr %65, align 4, !tbaa !6
  br label %76

66:                                               ; preds = %58
  %67 = load ptr, ptr %16, align 8, !tbaa !20
  %68 = getelementptr inbounds nuw %struct.err_error_st, ptr %67, i32 0, i32 0
  %69 = load ptr, ptr %68, align 8, !tbaa !26
  %70 = load ptr, ptr %10, align 8, !tbaa !10
  store ptr %69, ptr %70, align 8, !tbaa !27
  %71 = load ptr, ptr %16, align 8, !tbaa !20
  %72 = getelementptr inbounds nuw %struct.err_error_st, ptr %71, i32 0, i32 3
  %73 = load i16, ptr %72, align 4, !tbaa !28
  %74 = zext i16 %73 to i32
  %75 = load ptr, ptr %11, align 8, !tbaa !13
  store i32 %74, ptr %75, align 4, !tbaa !6
  br label %76

76:                                               ; preds = %66, %63
  br label %77

77:                                               ; preds = %76, %55, %44
  %78 = load ptr, ptr %12, align 8, !tbaa !10
  %79 = icmp ne ptr %78, null
  br i1 %79, label %80, label %132

80:                                               ; preds = %77
  %81 = load ptr, ptr %16, align 8, !tbaa !20
  %82 = getelementptr inbounds nuw %struct.err_error_st, ptr %81, i32 0, i32 1
  %83 = load ptr, ptr %82, align 8, !tbaa !29
  %84 = icmp eq ptr %83, null
  br i1 %84, label %85, label %92

85:                                               ; preds = %80
  %86 = load ptr, ptr %12, align 8, !tbaa !10
  store ptr @.str.10, ptr %86, align 8, !tbaa !27
  %87 = load ptr, ptr %13, align 8, !tbaa !13
  %88 = icmp ne ptr %87, null
  br i1 %88, label %89, label %91

89:                                               ; preds = %85
  %90 = load ptr, ptr %13, align 8, !tbaa !13
  store i32 0, ptr %90, align 4, !tbaa !6
  br label %91

91:                                               ; preds = %89, %85
  br label %131

92:                                               ; preds = %80
  %93 = load ptr, ptr %16, align 8, !tbaa !20
  %94 = getelementptr inbounds nuw %struct.err_error_st, ptr %93, i32 0, i32 1
  %95 = load ptr, ptr %94, align 8, !tbaa !29
  %96 = load ptr, ptr %12, align 8, !tbaa !10
  store ptr %95, ptr %96, align 8, !tbaa !27
  %97 = load ptr, ptr %13, align 8, !tbaa !13
  %98 = icmp ne ptr %97, null
  br i1 %98, label %99, label %106

99:                                               ; preds = %92
  %100 = load ptr, ptr %16, align 8, !tbaa !20
  %101 = getelementptr inbounds nuw %struct.err_error_st, ptr %100, i32 0, i32 4
  %102 = load i8, ptr %101, align 2, !tbaa !30
  %103 = zext i8 %102 to i32
  %104 = and i32 %103, 15
  %105 = load ptr, ptr %13, align 8, !tbaa !13
  store i32 %104, ptr %105, align 4, !tbaa !6
  br label %106

106:                                              ; preds = %99, %92
  %107 = load i32, ptr %8, align 4, !tbaa !6
  %108 = icmp ne i32 %107, 0
  br i1 %108, label %109, label %130

109:                                              ; preds = %106
  %110 = load ptr, ptr %16, align 8, !tbaa !20
  %111 = getelementptr inbounds nuw %struct.err_error_st, ptr %110, i32 0, i32 4
  %112 = load i8, ptr %111, align 2, !tbaa !30
  %113 = zext i8 %112 to i32
  %114 = and i32 %113, 16
  %115 = icmp ne i32 %114, 0
  br i1 %115, label %116, label %125

116:                                              ; preds = %109
  %117 = load ptr, ptr %15, align 8, !tbaa !15
  %118 = getelementptr inbounds nuw %struct.err_state_st, ptr %117, i32 0, i32 3
  %119 = load ptr, ptr %118, align 8, !tbaa !31
  call void @free(ptr noundef %119) #12
  %120 = load ptr, ptr %16, align 8, !tbaa !20
  %121 = getelementptr inbounds nuw %struct.err_error_st, ptr %120, i32 0, i32 1
  %122 = load ptr, ptr %121, align 8, !tbaa !29
  %123 = load ptr, ptr %15, align 8, !tbaa !15
  %124 = getelementptr inbounds nuw %struct.err_state_st, ptr %123, i32 0, i32 3
  store ptr %122, ptr %124, align 8, !tbaa !31
  br label %125

125:                                              ; preds = %116, %109
  %126 = load ptr, ptr %16, align 8, !tbaa !20
  %127 = getelementptr inbounds nuw %struct.err_error_st, ptr %126, i32 0, i32 1
  store ptr null, ptr %127, align 8, !tbaa !29
  %128 = load ptr, ptr %16, align 8, !tbaa !20
  %129 = getelementptr inbounds nuw %struct.err_error_st, ptr %128, i32 0, i32 4
  store i8 0, ptr %129, align 2, !tbaa !30
  br label %130

130:                                              ; preds = %125, %106
  br label %131

131:                                              ; preds = %130, %91
  br label %132

132:                                              ; preds = %131, %77
  %133 = load i32, ptr %8, align 4, !tbaa !6
  %134 = icmp ne i32 %133, 0
  br i1 %134, label %135, label %140

135:                                              ; preds = %132
  %136 = load ptr, ptr %16, align 8, !tbaa !20
  call void @err_clear(ptr noundef %136)
  %137 = load i32, ptr %14, align 4, !tbaa !6
  %138 = load ptr, ptr %15, align 8, !tbaa !15
  %139 = getelementptr inbounds nuw %struct.err_state_st, ptr %138, i32 0, i32 2
  store i32 %137, ptr %139, align 4, !tbaa !17
  br label %140

140:                                              ; preds = %135, %132
  %141 = load i32, ptr %17, align 4, !tbaa !6
  store i32 %141, ptr %7, align 4
  store i32 1, ptr %18, align 4
  br label %142

142:                                              ; preds = %140, %30
  call void @llvm.lifetime.end.p0(i64 4, ptr %17) #12
  call void @llvm.lifetime.end.p0(i64 8, ptr %16) #12
  call void @llvm.lifetime.end.p0(i64 8, ptr %15) #12
  call void @llvm.lifetime.end.p0(i64 4, ptr %14) #12
  %143 = load i32, ptr %7, align 4
  ret i32 %143
}

; Function Attrs: nounwind uwtable
define hidden i32 @ERR_peek_error_line(ptr noundef %0, ptr noundef %1) #0 {
  %3 = alloca ptr, align 8
  %4 = alloca ptr, align 8
  store ptr %0, ptr %3, align 8, !tbaa !10
  store ptr %1, ptr %4, align 8, !tbaa !13
  %5 = load ptr, ptr %3, align 8, !tbaa !10
  %6 = load ptr, ptr %4, align 8, !tbaa !13
  %7 = call i32 @get_error_values(i32 noundef 0, i32 noundef 0, ptr noundef %5, ptr noundef %6, ptr noundef null, ptr noundef null)
  ret i32 %7
}