; Function Attrs: nounwind uwtable
define hidden i32 @ERR_peek_error_line(ptr noundef writeonly captures(address_is_null) %0, ptr noundef writeonly captures(address_is_null) %1) local_unnamed_addr #0 {
  %3 = tail call ptr @CRYPTO_get_thread_local(i32 noundef 0) #17
  %4 = icmp eq ptr %3, null
  br i1 %4, label %5, label %err_get_state.exit.i

5:                                                ; preds = %2
  %calloc.i.i = tail call dereferenceable_or_null(400) ptr @calloc(i64 1, i64 400)
  %6 = icmp eq ptr %calloc.i.i, null
  br i1 %6, label %get_error_values.exit, label %7

7:                                                ; preds = %5
  %8 = tail call i32 @CRYPTO_set_thread_local(i32 noundef 0, ptr noundef nonnull %calloc.i.i, ptr noundef nonnull @err_state_free) #17
  %.not.i.i = icmp eq i32 %8, 0
  br i1 %.not.i.i, label %get_error_values.exit, label %err_get_state.exit.i

err_get_state.exit.i:                             ; preds = %7, %2
  %.06.i.i = phi ptr [ %3, %2 ], [ %calloc.i.i, %7 ]
  %9 = getelementptr inbounds nuw i8, ptr %.06.i.i, i64 388
  %10 = load i32, ptr %9, align 4, !tbaa !6
  %11 = getelementptr inbounds nuw i8, ptr %.06.i.i, i64 384
  %12 = load i32, ptr %11, align 8, !tbaa !12
  %13 = icmp eq i32 %10, %12
  br i1 %13, label %get_error_values.exit, label %14

14:                                               ; preds = %err_get_state.exit.i
  %15 = add i32 %10, 1
  %16 = and i32 %15, 15
  %17 = zext nneg i32 %16 to i64
  %18 = getelementptr inbounds nuw [16 x %struct.err_error_st], ptr %.06.i.i, i64 0, i64 %17
  %19 = getelementptr inbounds nuw i8, ptr %18, i64 16
  %20 = load i32, ptr %19, align 8, !tbaa !13
  %21 = icmp ne ptr %0, null
  %22 = icmp ne ptr %1, null
  %or.cond.i = and i1 %21, %22
  br i1 %or.cond.i, label %23, label %get_error_values.exit

23:                                               ; preds = %14
  %24 = load ptr, ptr %18, align 8, !tbaa !19
  %25 = icmp eq ptr %24, null
  br i1 %25, label %.sink.split.i, label %26

26:                                               ; preds = %23
  %27 = getelementptr inbounds nuw i8, ptr %18, i64 20
  %28 = load i16, ptr %27, align 4, !tbaa !21
  %29 = zext i16 %28 to i32
  br label %.sink.split.i

.sink.split.i:                                    ; preds = %23, %26
  %.sink = phi ptr [ %24, %26 ], [ @.str.11, %23 ]
  %.sink.i = phi i32 [ %29, %26 ], [ 0, %23 ]
  store ptr %.sink, ptr %0, align 8, !tbaa !20
  store i32 %.sink.i, ptr %1, align 4, !tbaa !22
  br label %get_error_values.exit

get_error_values.exit:                            ; preds = %14, %.sink.split.i, %5, %7, %err_get_state.exit.i
  %.0.i = phi i32 [ 0, %err_get_state.exit.i ], [ 0, %5 ], [ 0, %7 ], [ %20, %.sink.split.i ], [ %20, %14 ]
  ret i32 %.0.i
}